https://www.ssllabs.com/ssltest/analyze.html?d=vpnranks.com

Certificate:
    Data:
        Version: 3 (0x2)
        Serial Number: 18011738343413934325 (0xf9f68c97d27868f5)
    Signature Algorithm: sha1WithRSAEncryption
        Issuer: CN=selfsigned.cloudwaysapps.com
        Validity
            Not Before: Sep 16 08:03:43 2013 GMT
            Not After : Sep 14 08:03:43 2023 GMT
        Subject: CN=selfsigned.cloudwaysapps.com
        Subject Public Key Info:
            Public Key Algorithm: rsaEncryption
                Public-Key: (2048 bit)
                Modulus:
                    00:f6:bb:92:ad:53:e9:ac:35:4a:cd:03:13:39:fa:
                    4b:de:33:ef:45:b7:33:f6:34:e1:a0:7d:4e:fb:7a:
                    65:05:71:36:c7:9c:3f:89:0b:89:29:3b:ad:4b:6f:
                    d3:2c:8b:4d:39:44:1a:0e:51:30:4d:70:56:33:94:
                    b6:63:d2:ec:78:26:1c:4d:21:f4:68:46:ce:22:8b:
                    cd:87:11:15:3c:ff:56:e3:fe:13:92:06:95:9f:a0:
                    96:0c:47:18:ce:0b:36:f1:68:a8:67:89:2e:da:df:
                    6a:89:19:de:1b:d8:df:1e:5f:ef:fc:81:df:6f:2b:
                    5a:2d:cb:4e:c4:96:e4:2c:ba:e0:6d:c6:8b:a5:ab:
                    fb:f3:cd:ec:ce:ee:a2:01:ad:01:87:58:0d:b5:1d:
                    03:26:f9:10:96:2e:cc:51:3f:69:34:7d:60:46:32:
                    7e:37:a7:23:da:5e:ad:07:ba:a4:40:f2:c4:49:26:
                    9e:24:97:29:04:0a:8c:e7:c6:51:06:f8:35:47:47:
                    ec:d4:ae:33:d6:7c:a5:7f:a5:ee:4c:36:44:12:5c:
                    34:ee:1e:00:55:c6:de:c0:ab:2f:35:bc:2f:e9:d6:
                    05:d1:da:ac:04:56:ba:25:69:c1:a9:7a:51:e6:c6:
                    eb:73:9e:cc:8d:6e:10:70:76:86:14:2d:6f:c1:e0:
                    49:35
                Exponent: 65537 (0x10001)
        X509v3 extensions:
            X509v3 Subject Key Identifier: 
                98:72:B6:A8:73:8B:8A:39:4A:00:2B:63:3F:CD:FE:67:D1:59:D8:27
            X509v3 Authority Key Identifier: 
                keyid:98:72:B6:A8:73:8B:8A:39:4A:00:2B:63:3F:CD:FE:67:D1:59:D8:27

            X509v3 Basic Constraints: 
                CA:TRUE
    Signature Algorithm: sha1WithRSAEncryption
         01:97:6e:1b:d0:38:d7:6d:47:f0:86:d3:49:09:39:ec:34:27:
         13:b4:27:dc:87:e4:ae:52:d7:97:ff:69:21:f9:81:15:63:21:
         0e:1a:d7:c1:f1:13:dd:b2:81:32:3a:f6:26:a3:22:b3:ca:c4:
         f8:3c:03:74:7c:52:e8:bb:ce:35:5a:fc:3f:1a:5f:1b:50:b2:
         eb:af:e1:c7:7a:02:e6:f3:1b:28:8e:57:3f:7f:91:22:0d:4e:
         d5:54:27:71:6f:2f:d1:eb:9f:b0:ae:fc:eb:02:f1:d1:4e:b7:
         38:06:21:05:f6:37:1b:59:f1:f4:06:50:fc:cf:bf:bc:5d:e7:
         ab:7d:19:62:0b:70:78:63:3d:0a:4b:d3:5c:ec:c2:9c:ad:76:
         ee:40:85:69:99:17:db:5c:c3:b6:d2:6e:14:ab:03:be:a4:ba:
         87:60:ae:31:f1:4e:79:79:fc:25:fd:f0:f3:3b:b1:5e:32:5a:
         2e:9a:4a:17:58:ef:8f:67:8b:eb:9c:89:d7:63:3e:ef:95:1a:
         6a:92:7e:ba:b3:e4:2a:43:46:3f:1b:c5:26:1d:a2:15:06:be:
         84:14:57:f0:17:48:cb:c7:9b:de:1c:f3:8d:d8:6e:a5:c2:aa:
         c0:c5:50:b1:29:82:5e:20:bc:b4:cc:e7:aa:e4:ec:f0:ab:9a:
         97:c5:e2:a8
         
         -----BEGIN CERTIFICATE-----
MIIDITCCAgmgAwIBAgIJAPn2jJfSeGj1MA0GCSqGSIb3DQEBBQUAMCcxJTAjBgNV
BAMMHHNlbGZzaWduZWQuY2xvdWR3YXlzYXBwcy5jb20wHhcNMTMwOTE2MDgwMzQz
WhcNMjMwOTE0MDgwMzQzWjAnMSUwIwYDVQQDDBxzZWxmc2lnbmVkLmNsb3Vkd2F5
c2FwcHMuY29tMIIBIjANBgkqhkiG9w0BAQEFAAOCAQ8AMIIBCgKCAQEA9ruSrVPp
rDVKzQMTOfpL3jPvRbcz9jThoH1O+3plBXE2x5w/iQuJKTutS2/TLItNOUQaDlEw
TXBWM5S2Y9LseCYcTSH0aEbOIovNhxEVPP9W4/4TkgaVn6CWDEcYzgs28WioZ4ku
2t9qiRneG9jfHl/v/IHfbytaLctOxJbkLLrgbcaLpav7883szu6iAa0Bh1gNtR0D
JvkQli7MUT9pNH1gRjJ+N6cj2l6tB7qkQPLESSaeJJcpBAqM58ZRBvg1R0fs1K4z
1nylf6XuTDZEElw07h4AVcbewKsvNbwv6dYF0dqsBFa6JWnBqXpR5sbrc57MjW4Q
cHaGFC1vweBJNQIDAQABo1AwTjAdBgNVHQ4EFgQUmHK2qHOLijlKACtjP83+Z9FZ
2CcwHwYDVR0jBBgwFoAUmHK2qHOLijlKACtjP83+Z9FZ2CcwDAYDVR0TBAUwAwEB
/zANBgkqhkiG9w0BAQUFAAOCAQEAAZduG9A4121H8IbTSQk57DQnE7Qn3IfkrlLX
l/9pIfmBFWMhDhrXwfET3bKBMjr2JqMis8rE+DwDdHxS6LvONVr8PxpfG1Cy66/h
x3oC5vMbKI5XP3+RIg1O1VQncW8v0eufsK786wLx0U63OAYhBfY3G1nx9AZQ/M+/
vF3nq30ZYgtweGM9CkvTXOzCnK127kCFaZkX21zDttJuFKsDvqS6h2CuMfFOeXn8
Jf3w8zuxXjJaLppKF1jvj2eL65yJ12M+75UaapJ+urPkKkNGPxvFJh2iFQa+hBRX
8BdIy8eb3hzzjdhupcKqwMVQsSmCXiC8tMznquTs8Kual8XiqA==
-----END CERTIFICATE-----
